target datalayout = "e-m:e-p270:32:32-p271:32:32-p272:64:64-i64:64-i128:128-f80:128-n8:16:32:64-S128"
target triple = "x86_64-pc-linux-gnu"

@hf_mount_has_options = internal global i32 0, align 4
@hf_mount_options = internal global i32 0, align 4
@hf_mount_exportlist_directory = internal global i32 0, align 4
@hf_mount_exportlist = internal global i32 0, align 4
@ett_mount_exportlist = internal global i32 0, align 4
@.str.199 = private unnamed_addr constant [25 x i8] c"Export List Entry: %s %s\00", align 1

; Function Attrs: null_pointer_is_valid sspstrong uwtable
define internal i32 @dissect_sgi_exportlist(ptr noundef %0, i32 noundef %1, ptr noundef %2, ptr noundef %3, ptr noundef %4) #0 {
  %6 = alloca ptr, align 8
  %7 = alloca i32, align 4
  %8 = alloca ptr, align 8
  %9 = alloca ptr, align 8
  %10 = alloca ptr, align 8
  %11 = alloca ptr, align 8
  %12 = alloca ptr, align 8
  %13 = alloca i32, align 4
  %14 = alloca ptr, align 8
  %15 = alloca ptr, align 8
  store ptr %0, ptr %6, align 8
  store i32 %1, ptr %7, align 4
  store ptr %2, ptr %8, align 8
  store ptr %3, ptr %9, align 8
  store ptr %4, ptr %10, align 8
  call void @llvm.lifetime.start.p0(i64 8, ptr %11) #5
  store ptr null, ptr %11, align 8
  call void @llvm.lifetime.start.p0(i64 8, ptr %12) #5
  store ptr null, ptr %12, align 8
  call void @llvm.lifetime.start.p0(i64 4, ptr %13) #5
  %16 = load i32, ptr %7, align 4
  store i32 %16, ptr %13, align 4
  call void @llvm.lifetime.start.p0(i64 8, ptr %14) #5
  call void @llvm.lifetime.start.p0(i64 8, ptr %15) #5
  %17 = load ptr, ptr %9, align 8
  %18 = icmp ne ptr %17, null
  br i1 %18, label %19, label %32

19:                                               ; preds = %5
  %20 = load ptr, ptr %9, align 8
  %21 = load i32, ptr @hf_mount_exportlist, align 4
  %22 = load ptr, ptr %6, align 8
  %23 = load i32, ptr %7, align 4
  %24 = call ptr @proto_tree_add_item(ptr noundef %20, i32 noundef %21, ptr noundef %22, i32 noundef %23, i32 noundef -1, i32 noundef 0)
  store ptr %24, ptr %11, align 8
  %25 = load ptr, ptr %11, align 8
  %26 = icmp ne ptr %25, null
  br i1 %26, label %27, label %31

27:                                               ; preds = %19
  %28 = load ptr, ptr %11, align 8
  %29 = load i32, ptr @ett_mount_exportlist, align 4
  %30 = call ptr @proto_item_add_subtree(ptr noundef %28, i32 noundef %29)
  store ptr %30, ptr %12, align 8
  br label %31

31:                                               ; preds = %27, %19
  br label %32

32:                                               ; preds = %31, %5
  %33 = load ptr, ptr %6, align 8
  %34 = load ptr, ptr %12, align 8
  %35 = load i32, ptr @hf_mount_exportlist_directory, align 4
  %36 = load i32, ptr %7, align 4
  %37 = call i32 @dissect_rpc_string(ptr noundef %33, ptr noundef %34, i32 noundef %35, i32 noundef %36, ptr noundef %14)
  store i32 %37, ptr %7, align 4
  %38 = load ptr, ptr %6, align 8
  %39 = load ptr, ptr %12, align 8
  %40 = load i32, ptr @hf_mount_has_options, align 4
  %41 = load i32, ptr %7, align 4
  %42 = call i32 @dissect_rpc_bool(ptr noundef %38, ptr noundef %39, i32 noundef %40, i32 noundef %41)
  store i32 %42, ptr %7, align 4
  %43 = load ptr, ptr %6, align 8
  %44 = load ptr, ptr %12, align 8
  %45 = load i32, ptr @hf_mount_options, align 4
  %46 = load i32, ptr %7, align 4
  %47 = call i32 @dissect_rpc_string(ptr noundef %43, ptr noundef %44, i32 noundef %45, i32 noundef %46, ptr noundef %15)
  store i32 %47, ptr %7, align 4
  %48 = load ptr, ptr %11, align 8
  %49 = icmp ne ptr %48, null
  br i1 %49, label %50, label %58

50:                                               ; preds = %32
  %51 = load ptr, ptr %11, align 8
  %52 = load ptr, ptr %14, align 8
  %53 = load ptr, ptr %15, align 8
  call void (ptr, ptr, ...) @proto_item_set_text(ptr noundef %51, ptr noundef @.str.199, ptr noundef %52, ptr noundef %53)
  %54 = load ptr, ptr %11, align 8
  %55 = load i32, ptr %7, align 4
  %56 = load i32, ptr %13, align 4
  %57 = sub i32 %55, %56
  call void @proto_item_set_len(ptr noundef %54, i32 noundef %57)
  br label %58

58:                                               ; preds = %50, %32
  %59 = load i32, ptr %7, align 4
  call void @llvm.lifetime.end.p0(i64 8, ptr %15) #5
  call void @llvm.lifetime.end.p0(i64 8, ptr %14) #5
  call void @llvm.lifetime.end.p0(i64 4, ptr %13) #5
  call void @llvm.lifetime.end.p0(i64 8, ptr %12) #5
  call void @llvm.lifetime.end.p0(i64 8, ptr %11) #5
  ret i32 %59
}