; Function Attrs: null_pointer_is_valid sspstrong uwtable
define internal i32 @dissect_sgi_exportlist(ptr noundef %0, i32 noundef %1, ptr readnone captures(none) %2, ptr noundef %3, ptr readnone captures(none) %4) #0 {
  %6 = alloca ptr, align 8
  %7 = alloca ptr, align 8
  call void @llvm.lifetime.start.p0(i64 8, ptr nonnull %6) #5
  call void @llvm.lifetime.start.p0(i64 8, ptr nonnull %7) #5
  %.not = icmp eq ptr %3, null
  br i1 %.not, label %14, label %8

8:                                                ; preds = %5
  %9 = load i32, ptr @hf_mount_exportlist, align 4
  %10 = tail call ptr @proto_tree_add_item(ptr noundef nonnull %3, i32 noundef %9, ptr noundef %0, i32 noundef %1, i32 noundef -1, i32 noundef 0)
  %.not24 = icmp eq ptr %10, null
  br i1 %.not24, label %14, label %11

11:                                               ; preds = %8
  %12 = load i32, ptr @ett_mount_exportlist, align 4
  %13 = tail call ptr @proto_item_add_subtree(ptr noundef nonnull %10, i32 noundef %12)
  br label %14

14:                                               ; preds = %8, %11, %5
  %.021 = phi ptr [ %10, %11 ], [ null, %8 ], [ null, %5 ]
  %.0 = phi ptr [ %13, %11 ], [ null, %8 ], [ null, %5 ]
  %15 = load i32, ptr @hf_mount_exportlist_directory, align 4
  %16 = call i32 @dissect_rpc_string(ptr noundef %0, ptr noundef %.0, i32 noundef %15, i32 noundef %1, ptr noundef nonnull %6)
  %17 = load i32, ptr @hf_mount_has_options, align 4
  %18 = call i32 @dissect_rpc_bool(ptr noundef %0, ptr noundef %.0, i32 noundef %17, i32 noundef %16)
  %19 = load i32, ptr @hf_mount_options, align 4
  %20 = call i32 @dissect_rpc_string(ptr noundef %0, ptr noundef %.0, i32 noundef %19, i32 noundef %18, ptr noundef nonnull %7)
  %.not25 = icmp eq ptr %.021, null
  br i1 %.not25, label %25, label %21

21:                                               ; preds = %14
  %22 = load ptr, ptr %6, align 8
  %23 = load ptr, ptr %7, align 8
  call void (ptr, ptr, ...) @proto_item_set_text(ptr noundef nonnull %.021, ptr noundef nonnull @.str.199, ptr noundef %22, ptr noundef %23)
  %24 = sub i32 %20, %1
  call void @proto_item_set_len(ptr noundef nonnull %.021, i32 noundef %24)
  br label %25

25:                                               ; preds = %21, %14
  call void @llvm.lifetime.end.p0(i64 8, ptr nonnull %7) #5
  call void @llvm.lifetime.end.p0(i64 8, ptr nonnull %6) #5
  ret i32 %20
}